; Function Attrs: mustprogress nofree norecurse nosync nounwind willreturn memory(readwrite, inaccessiblemem: none) uwtable
define void @_ZN3net23CachedNetworkParameters5ClearEv(ptr noundef nonnull align 8 captures(none) dereferenceable(72) %0) unnamed_addr #13 align 2 personality ptr @__gxx_personality_v0 {
  %2 = getelementptr inbounds nuw i8, ptr %0, i64 24
  %3 = load i32, ptr %2, align 8, !tbaa !22
  %4 = and i32 %3, 127
  %.not = icmp eq i32 %4, 0
  br i1 %.not, label %_ZN6google8protobuf8internal14ArenaStringPtr19ClearToEmptyNoArenaEPKNSt7__cxx1112basic_stringIcSt11char_traitsIcESaIcEEE.exit, label %5

5:                                                ; preds = %1
  %6 = getelementptr inbounds nuw i8, ptr %0, i64 40
  tail call void @llvm.memset.p0.i64(ptr noundef nonnull align 8 dereferenceable(32) %6, i8 0, i64 32, i1 false)
  %7 = and i32 %3, 1
  %.not2 = icmp eq i32 %7, 0
  br i1 %.not2, label %_ZN6google8protobuf8internal14ArenaStringPtr19ClearToEmptyNoArenaEPKNSt7__cxx1112basic_stringIcSt11char_traitsIcESaIcEEE.exit, label %8

8:                                                ; preds = %5
  %9 = getelementptr inbounds nuw i8, ptr %0, i64 32
  %10 = load ptr, ptr @_ZN6google8protobuf8internal13empty_string_B5cxx11E, align 8, !tbaa !19
  %11 = load ptr, ptr %9, align 8, !tbaa !20
  %12 = icmp eq ptr %11, %10
  br i1 %12, label %_ZN6google8protobuf8internal14ArenaStringPtr19ClearToEmptyNoArenaEPKNSt7__cxx1112basic_stringIcSt11char_traitsIcESaIcEEE.exit, label %13

13:                                               ; preds = %8
  %14 = getelementptr inbounds nuw i8, ptr %11, i64 8
  store i64 0, ptr %14, align 8, !tbaa !29
  %15 = load ptr, ptr %11, align 8, !tbaa !33
  store i8 0, ptr %15, align 1, !tbaa !34
  br label %_ZN6google8protobuf8internal14ArenaStringPtr19ClearToEmptyNoArenaEPKNSt7__cxx1112basic_stringIcSt11char_traitsIcESaIcEEE.exit

_ZN6google8protobuf8internal14ArenaStringPtr19ClearToEmptyNoArenaEPKNSt7__cxx1112basic_stringIcSt11char_traitsIcESaIcEEE.exit: ; preds = %13, %8, %5, %1
  store i32 0, ptr %2, align 8
  %16 = getelementptr inbounds nuw i8, ptr %0, i64 8
  %17 = load ptr, ptr @_ZN6google8protobuf8internal13empty_string_B5cxx11E, align 8, !tbaa !19
  %18 = load ptr, ptr %16, align 8, !tbaa !20
  %19 = icmp eq ptr %18, %17
  br i1 %19, label %_ZN6google8protobuf8internal14ArenaStringPtr19ClearToEmptyNoArenaEPKNSt7__cxx1112basic_stringIcSt11char_traitsIcESaIcEEE.exit1, label %20

20:                                               ; preds = %_ZN6google8protobuf8internal14ArenaStringPtr19ClearToEmptyNoArenaEPKNSt7__cxx1112basic_stringIcSt11char_traitsIcESaIcEEE.exit
  %21 = getelementptr inbounds nuw i8, ptr %18, i64 8
  store i64 0, ptr %21, align 8, !tbaa !29
  %22 = load ptr, ptr %18, align 8, !tbaa !33
  store i8 0, ptr %22, align 1, !tbaa !34
  br label %_ZN6google8protobuf8internal14ArenaStringPtr19ClearToEmptyNoArenaEPKNSt7__cxx1112basic_stringIcSt11char_traitsIcESaIcEEE.exit1

_ZN6google8protobuf8internal14ArenaStringPtr19ClearToEmptyNoArenaEPKNSt7__cxx1112basic_stringIcSt11char_traitsIcESaIcEEE.exit1: ; preds = %_ZN6google8protobuf8internal14ArenaStringPtr19ClearToEmptyNoArenaEPKNSt7__cxx1112basic_stringIcSt11char_traitsIcESaIcEEE.exit, %20
  ret void
}